; Function Attrs: nounwind uwtable
define i32 @SSL_version(ptr noundef %0) local_unnamed_addr #0 {
  %.pre13 = load i32, ptr %0, align 8, !tbaa !19
  %2 = icmp eq i32 %.pre13, 0
  br i1 %2, label %.thread15, label %3

3:                                                ; preds = %1
  %4 = and i32 %.pre13, 128
  %.not = icmp eq i32 %4, 0
  br i1 %.not, label %7, label %5

5:                                                ; preds = %3
  %6 = tail call ptr @ossl_quic_obj_get0_handshake_layer(ptr noundef nonnull %0) #20
  %.pre = load i32, ptr %0, align 8, !tbaa !19
  br label %7

7:                                                ; preds = %3, %5
  %8 = phi i32 [ %.pre, %5 ], [ %.pre13, %3 ]
  %9 = phi ptr [ %6, %5 ], [ null, %3 ]
  %10 = and i32 %8, -2
  %switch = icmp eq i32 %10, 128
  br i1 %switch, label %16, label %11

11:                                               ; preds = %7
  %12 = icmp eq ptr %9, null
  br i1 %12, label %16, label %.thread15

.thread15:                                        ; preds = %1, %11
  %13 = phi ptr [ %9, %11 ], [ %0, %1 ]
  %14 = getelementptr inbounds nuw i8, ptr %13, i64 72
  %15 = load i32, ptr %14, align 8, !tbaa !83
  br label %16

16:                                               ; preds = %7, %11, %.thread15
  %.0 = phi i32 [ %15, %.thread15 ], [ 1, %7 ], [ 0, %11 ]
  ret i32 %.0
}